target datalayout = "e-m:e-p270:32:32-p271:32:32-p272:64:64-i64:64-i128:128-f80:128-n8:16:32:64-S128"
target triple = "x86_64-pc-linux-gnu"

%struct.DrawBoxContext = type { ptr, i32, i32, i32, i32, i32, ptr, [4 x i8], [4 x i8], [4 x i8], i32, i32, i32, ptr, ptr, ptr, ptr, ptr, ptr, i32, i32, i32, i32, ptr }

; Function Attrs: alwaysinline nounwind willreturn memory(read) uwtable
define internal i32 @pixel_belongs_to_box(ptr noundef %0, i32 noundef %1, i32 noundef %2) #5 {
  %4 = alloca ptr, align 8
  %5 = alloca i32, align 4
  %6 = alloca i32, align 4
  store ptr %0, ptr %4, align 8, !tbaa !22
  store i32 %1, ptr %5, align 4, !tbaa !31
  store i32 %2, ptr %6, align 4, !tbaa !31
  %7 = load i32, ptr %6, align 4, !tbaa !31
  %8 = load ptr, ptr %4, align 8, !tbaa !22
  %9 = getelementptr inbounds nuw %struct.DrawBoxContext, ptr %8, i32 0, i32 2
  %10 = load i32, ptr %9, align 4, !tbaa !36
  %11 = sub nsw i32 %7, %10
  %12 = load ptr, ptr %4, align 8, !tbaa !22
  %13 = getelementptr inbounds nuw %struct.DrawBoxContext, ptr %12, i32 0, i32 5
  %14 = load i32, ptr %13, align 8, !tbaa !39
  %15 = icmp slt i32 %11, %14
  br i1 %15, label %56, label %16

16:                                               ; preds = %3
  %17 = load ptr, ptr %4, align 8, !tbaa !22
  %18 = getelementptr inbounds nuw %struct.DrawBoxContext, ptr %17, i32 0, i32 2
  %19 = load i32, ptr %18, align 4, !tbaa !36
  %20 = load ptr, ptr %4, align 8, !tbaa !22
  %21 = getelementptr inbounds nuw %struct.DrawBoxContext, ptr %20, i32 0, i32 4
  %22 = load i32, ptr %21, align 4, !tbaa !38
  %23 = add nsw i32 %19, %22
  %24 = sub nsw i32 %23, 1
  %25 = load i32, ptr %6, align 4, !tbaa !31
  %26 = sub nsw i32 %24, %25
  %27 = load ptr, ptr %4, align 8, !tbaa !22
  %28 = getelementptr inbounds nuw %struct.DrawBoxContext, ptr %27, i32 0, i32 5
  %29 = load i32, ptr %28, align 8, !tbaa !39
  %30 = icmp slt i32 %26, %29
  br i1 %30, label %56, label %31

31:                                               ; preds = %16
  %32 = load i32, ptr %5, align 4, !tbaa !31
  %33 = load ptr, ptr %4, align 8, !tbaa !22
  %34 = getelementptr inbounds nuw %struct.DrawBoxContext, ptr %33, i32 0, i32 1
  %35 = load i32, ptr %34, align 8, !tbaa !35
  %36 = sub nsw i32 %32, %35
  %37 = load ptr, ptr %4, align 8, !tbaa !22
  %38 = getelementptr inbounds nuw %struct.DrawBoxContext, ptr %37, i32 0, i32 5
  %39 = load i32, ptr %38, align 8, !tbaa !39
  %40 = icmp slt i32 %36, %39
  br i1 %40, label %56, label %41

41:                                               ; preds = %31
  %42 = load ptr, ptr %4, align 8, !tbaa !22
  %43 = getelementptr inbounds nuw %struct.DrawBoxContext, ptr %42, i32 0, i32 1
  %44 = load i32, ptr %43, align 8, !tbaa !35
  %45 = load ptr, ptr %4, align 8, !tbaa !22
  %46 = getelementptr inbounds nuw %struct.DrawBoxContext, ptr %45, i32 0, i32 3
  %47 = load i32, ptr %46, align 8, !tbaa !37
  %48 = add nsw i32 %44, %47
  %49 = sub nsw i32 %48, 1
  %50 = load i32, ptr %5, align 4, !tbaa !31
  %51 = sub nsw i32 %49, %50
  %52 = load ptr, ptr %4, align 8, !tbaa !22
  %53 = getelementptr inbounds nuw %struct.DrawBoxContext, ptr %52, i32 0, i32 5
  %54 = load i32, ptr %53, align 8, !tbaa !39
  %55 = icmp slt i32 %51, %54
  br label %56

56:                                               ; preds = %41, %31, %16, %3
  %57 = phi i1 [ true, %31 ], [ true, %16 ], [ true, %3 ], [ %55, %41 ]
  %58 = zext i1 %57 to i32
  ret i32 %58
}