; Function Attrs: alwaysinline mustprogress nofree norecurse nosync nounwind willreturn memory(argmem: read) uwtable
define internal range(i32 0, 2) i32 @pixel_belongs_to_box(ptr noundef readonly captures(none) %0, i32 noundef %1, i32 noundef %2) #4 {
  %4 = getelementptr inbounds nuw i8, ptr %0, i64 12
  %5 = load i32, ptr %4, align 4, !tbaa !30
  %6 = sub nsw i32 %2, %5
  %7 = getelementptr inbounds nuw i8, ptr %0, i64 24
  %8 = load i32, ptr %7, align 8, !tbaa !33
  %9 = icmp slt i32 %6, %8
  br i1 %9, label %30, label %10

10:                                               ; preds = %3
  %11 = getelementptr inbounds nuw i8, ptr %0, i64 20
  %12 = load i32, ptr %11, align 4, !tbaa !32
  %13 = xor i32 %2, -1
  %14 = add i32 %5, %13
  %15 = add i32 %14, %12
  %16 = icmp slt i32 %15, %8
  br i1 %16, label %30, label %17

17:                                               ; preds = %10
  %18 = getelementptr inbounds nuw i8, ptr %0, i64 8
  %19 = load i32, ptr %18, align 8, !tbaa !29
  %20 = sub nsw i32 %1, %19
  %21 = icmp slt i32 %20, %8
  br i1 %21, label %30, label %22

22:                                               ; preds = %17
  %23 = getelementptr inbounds nuw i8, ptr %0, i64 16
  %24 = load i32, ptr %23, align 8, !tbaa !31
  %25 = xor i32 %1, -1
  %26 = add i32 %19, %25
  %27 = add i32 %26, %24
  %28 = icmp slt i32 %27, %8
  %29 = zext i1 %28 to i32
  br label %30

30:                                               ; preds = %22, %17, %10, %3
  %31 = phi i32 [ 1, %17 ], [ 1, %10 ], [ 1, %3 ], [ %29, %22 ]
  ret i32 %31
}